target datalayout = "e-m:e-p270:32:32-p271:32:32-p272:64:64-i64:64-i128:128-f80:128-n8:16:32:64-S128"
target triple = "x86_64-unknown-linux-gnu"

%struct.UStringSearch = type { ptr, %struct.UPattern, ptr, ptr, ptr, ptr, ptr, i8, i32, i32, i32, i8 }
%struct.UPattern = type { ptr, i32, i32, ptr, [256 x i32], i32, ptr, [256 x i64], i8, i8 }
%struct.USearch = type { ptr, i32, i8, i8, i16, ptr, ptr, i32, i32, i8, i8 }

; Function Attrs: mustprogress nounwind uwtable
define internal noundef i32 @_ZL7getMask18UColAttributeValue(i32 noundef %strength) #1 {
entry:
  %retval = alloca i32, align 4
  %strength.addr = alloca i32, align 4
  store i32 %strength, ptr %strength.addr, align 4
  %0 = load i32, ptr %strength.addr, align 4
  switch i32 %0, label %sw.default [
    i32 0, label %sw.bb
    i32 1, label %sw.bb1
  ]

sw.bb:                                            ; preds = %entry
  store i32 -65536, ptr %retval, align 4
  br label %return

sw.bb1:                                           ; preds = %entry
  store i32 -256, ptr %retval, align 4
  br label %return

sw.default:                                       ; preds = %entry
  store i32 -1, ptr %retval, align 4
  br label %return

return:                                           ; preds = %sw.default, %sw.bb1, %sw.bb
  %1 = load i32, ptr %retval, align 4
  ret i32 %1
}

; Function Attrs: mustprogress uwtable
define void @usearch_reset_75(ptr noundef %strsrch) #0 {
entry:
  %strsrch.addr = alloca ptr, align 8
  %status = alloca i32, align 4
  %sameCollAttribute = alloca i8, align 1
  %ceMask = alloca i32, align 4
  %shift = alloca i8, align 1
  %varTop = alloca i32, align 4
  %newStrength = alloca i32, align 4
  store ptr %strsrch, ptr %strsrch.addr, align 8
  %0 = load ptr, ptr %strsrch.addr, align 8
  %tobool = icmp ne ptr %0, null
  br i1 %tobool, label %if.then, label %if.end43

if.then:                                          ; preds = %entry
  store i32 0, ptr %status, align 4
  store i8 1, ptr %sameCollAttribute, align 1
  %1 = load ptr, ptr %strsrch.addr, align 8
  %collator = getelementptr inbounds %struct.UStringSearch, ptr %1, i32 0, i32 2
  %2 = load ptr, ptr %collator, align 8
  %call = call i32 @ucol_getStrength_75(ptr noundef %2)
  store i32 %call, ptr %newStrength, align 4
  %3 = load ptr, ptr %strsrch.addr, align 8
  %strength = getelementptr inbounds %struct.UStringSearch, ptr %3, i32 0, i32 8
  %4 = load i32, ptr %strength, align 4
  %cmp = icmp slt i32 %4, 3
  br i1 %cmp, label %land.lhs.true, label %lor.lhs.false

land.lhs.true:                                    ; preds = %if.then
  %5 = load i32, ptr %newStrength, align 4
  %cmp1 = icmp sge i32 %5, 3
  br i1 %cmp1, label %if.then6, label %lor.lhs.false

lor.lhs.false:                                    ; preds = %land.lhs.true, %if.then
  %6 = load ptr, ptr %strsrch.addr, align 8
  %strength2 = getelementptr inbounds %struct.UStringSearch, ptr %6, i32 0, i32 8
  %7 = load i32, ptr %strength2, align 4
  %cmp3 = icmp sge i32 %7, 3
  br i1 %cmp3, label %land.lhs.true4, label %if.end

land.lhs.true4:                                   ; preds = %lor.lhs.false
  %8 = load i32, ptr %newStrength, align 4
  %cmp5 = icmp slt i32 %8, 3
  br i1 %cmp5, label %if.then6, label %if.end

if.then6:                                         ; preds = %land.lhs.true4, %land.lhs.true
  store i8 0, ptr %sameCollAttribute, align 1
  br label %if.end

if.end:                                           ; preds = %if.then6, %land.lhs.true4, %lor.lhs.false
  %9 = load ptr, ptr %strsrch.addr, align 8
  %collator7 = getelementptr inbounds %struct.UStringSearch, ptr %9, i32 0, i32 2
  %10 = load ptr, ptr %collator7, align 8
  %call8 = call i32 @ucol_getStrength_75(ptr noundef %10)
  %11 = load ptr, ptr %strsrch.addr, align 8
  %strength9 = getelementptr inbounds %struct.UStringSearch, ptr %11, i32 0, i32 8
  store i32 %call8, ptr %strength9, align 4
  %12 = load ptr, ptr %strsrch.addr, align 8
  %strength10 = getelementptr inbounds %struct.UStringSearch, ptr %12, i32 0, i32 8
  %13 = load i32, ptr %strength10, align 4
  %call11 = call noundef i32 @_ZL7getMask18UColAttributeValue(i32 noundef %13)
  store i32 %call11, ptr %ceMask, align 4
  %14 = load ptr, ptr %strsrch.addr, align 8
  %ceMask12 = getelementptr inbounds %struct.UStringSearch, ptr %14, i32 0, i32 9
  %15 = load i32, ptr %ceMask12, align 8
  %16 = load i32, ptr %ceMask, align 4
  %cmp13 = icmp ne i32 %15, %16
  br i1 %cmp13, label %if.then14, label %if.end16

if.then14:                                        ; preds = %if.end
  %17 = load i32, ptr %ceMask, align 4
  %18 = load ptr, ptr %strsrch.addr, align 8
  %ceMask15 = getelementptr inbounds %struct.UStringSearch, ptr %18, i32 0, i32 9
  store i32 %17, ptr %ceMask15, align 8
  store i8 0, ptr %sameCollAttribute, align 1
  br label %if.end16

if.end16:                                         ; preds = %if.then14, %if.end
  %19 = load ptr, ptr %strsrch.addr, align 8
  %collator17 = getelementptr inbounds %struct.UStringSearch, ptr %19, i32 0, i32 2
  %20 = load ptr, ptr %collator17, align 8
  %call18 = call i32 @ucol_getAttribute_75(ptr noundef %20, i32 noundef 1, ptr noundef %status)
  %cmp19 = icmp eq i32 %call18, 20
  %conv = zext i1 %cmp19 to i8
  store i8 %conv, ptr %shift, align 1
  %21 = load ptr, ptr %strsrch.addr, align 8
  %toShift = getelementptr inbounds %struct.UStringSearch, ptr %21, i32 0, i32 11
  %22 = load i8, ptr %toShift, align 8
  %conv20 = sext i8 %22 to i32
  %23 = load i8, ptr %shift, align 1
  %conv21 = sext i8 %23 to i32
  %cmp22 = icmp ne i32 %conv20, %conv21
  br i1 %cmp22, label %if.then23, label %if.end25

if.then23:                                        ; preds = %if.end16
  %24 = load i8, ptr %shift, align 1
  %25 = load ptr, ptr %strsrch.addr, align 8
  %toShift24 = getelementptr inbounds %struct.UStringSearch, ptr %25, i32 0, i32 11
  store i8 %24, ptr %toShift24, align 8
  store i8 0, ptr %sameCollAttribute, align 1
  br label %if.end25

if.end25:                                         ; preds = %if.then23, %if.end16
  %26 = load ptr, ptr %strsrch.addr, align 8
  %collator26 = getelementptr inbounds %struct.UStringSearch, ptr %26, i32 0, i32 2
  %27 = load ptr, ptr %collator26, align 8
  %call27 = call i32 @ucol_getVariableTop_75(ptr noundef %27, ptr noundef %status)
  store i32 %call27, ptr %varTop, align 4
  %28 = load ptr, ptr %strsrch.addr, align 8
  %variableTop = getelementptr inbounds %struct.UStringSearch, ptr %28, i32 0, i32 10
  %29 = load i32, ptr %variableTop, align 4
  %30 = load i32, ptr %varTop, align 4
  %cmp28 = icmp ne i32 %29, %30
  br i1 %cmp28, label %if.then29, label %if.end31

if.then29:                                        ; preds = %if.end25
  %31 = load i32, ptr %varTop, align 4
  %32 = load ptr, ptr %strsrch.addr, align 8
  %variableTop30 = getelementptr inbounds %struct.UStringSearch, ptr %32, i32 0, i32 10
  store i32 %31, ptr %variableTop30, align 4
  store i8 0, ptr %sameCollAttribute, align 1
  br label %if.end31

if.end31:                                         ; preds = %if.then29, %if.end25
  %33 = load i8, ptr %sameCollAttribute, align 1
  %tobool32 = icmp ne i8 %33, 0
  br i1 %tobool32, label %if.end34, label %if.then33

if.then33:                                        ; preds = %if.end31
  %34 = load ptr, ptr %strsrch.addr, align 8
  call void @_ZL10initializeP13UStringSearchP10UErrorCode(ptr noundef %34, ptr noundef %status)
  br label %if.end34

if.end34:                                         ; preds = %if.then33, %if.end31
  %35 = load ptr, ptr %strsrch.addr, align 8
  %textIter = getelementptr inbounds %struct.UStringSearch, ptr %35, i32 0, i32 4
  %36 = load ptr, ptr %textIter, align 8
  %37 = load ptr, ptr %strsrch.addr, align 8
  %search = getelementptr inbounds %struct.UStringSearch, ptr %37, i32 0, i32 0
  %38 = load ptr, ptr %search, align 8
  %text = getelementptr inbounds %struct.USearch, ptr %38, i32 0, i32 0
  %39 = load ptr, ptr %text, align 8
  %40 = load ptr, ptr %strsrch.addr, align 8
  %search35 = getelementptr inbounds %struct.UStringSearch, ptr %40, i32 0, i32 0
  %41 = load ptr, ptr %search35, align 8
  %textLength = getelementptr inbounds %struct.USearch, ptr %41, i32 0, i32 1
  %42 = load i32, ptr %textLength, align 8
  call void @ucol_setText_75(ptr noundef %36, ptr noundef %39, i32 noundef %42, ptr noundef %status)
  %43 = load ptr, ptr %strsrch.addr, align 8
  %search36 = getelementptr inbounds %struct.UStringSearch, ptr %43, i32 0, i32 0
  %44 = load ptr, ptr %search36, align 8
  %matchedLength = getelementptr inbounds %struct.USearch, ptr %44, i32 0, i32 8
  store i32 0, ptr %matchedLength, align 4
  %45 = load ptr, ptr %strsrch.addr, align 8
  %search37 = getelementptr inbounds %struct.UStringSearch, ptr %45, i32 0, i32 0
  %46 = load ptr, ptr %search37, align 8
  %matchedIndex = getelementptr inbounds %struct.USearch, ptr %46, i32 0, i32 7
  store i32 -1, ptr %matchedIndex, align 8
  %47 = load ptr, ptr %strsrch.addr, align 8
  %search38 = getelementptr inbounds %struct.UStringSearch, ptr %47, i32 0, i32 0
  %48 = load ptr, ptr %search38, align 8
  %isOverlap = getelementptr inbounds %struct.USearch, ptr %48, i32 0, i32 2
  store i8 0, ptr %isOverlap, align 4
  %49 = load ptr, ptr %strsrch.addr, align 8
  %search39 = getelementptr inbounds %struct.UStringSearch, ptr %49, i32 0, i32 0
  %50 = load ptr, ptr %search39, align 8
  %isCanonicalMatch = getelementptr inbounds %struct.USearch, ptr %50, i32 0, i32 3
  store i8 0, ptr %isCanonicalMatch, align 1
  %51 = load ptr, ptr %strsrch.addr, align 8
  %search40 = getelementptr inbounds %struct.UStringSearch, ptr %51, i32 0, i32 0
  %52 = load ptr, ptr %search40, align 8
  %elementComparisonType = getelementptr inbounds %struct.USearch, ptr %52, i32 0, i32 4
  store i16 0, ptr %elementComparisonType, align 2
  %53 = load ptr, ptr %strsrch.addr, align 8
  %search41 = getelementptr inbounds %struct.UStringSearch, ptr %53, i32 0, i32 0
  %54 = load ptr, ptr %search41, align 8
  %isForwardSearching = getelementptr inbounds %struct.USearch, ptr %54, i32 0, i32 9
  store i8 1, ptr %isForwardSearching, align 8
  %55 = load ptr, ptr %strsrch.addr, align 8
  %search42 = getelementptr inbounds %struct.UStringSearch, ptr %55, i32 0, i32 0
  %56 = load ptr, ptr %search42, align 8
  %reset = getelementptr inbounds %struct.USearch, ptr %56, i32 0, i32 10
  store i8 1, ptr %reset, align 1
  br label %if.end43

if.end43:                                         ; preds = %if.end34, %entry
  ret void
}