; Function Attrs: mustprogress uwtable
define void @usearch_reset_75(ptr noundef %strsrch) local_unnamed_addr #0 {
entry:
  %status = alloca i32, align 4
  %tobool.not = icmp eq ptr %strsrch, null
  br i1 %tobool.not, label %if.end43, label %if.then

if.then:                                          ; preds = %entry
  store i32 0, ptr %status, align 4
  %collator = getelementptr inbounds i8, ptr %strsrch, i64 3128
  %0 = load ptr, ptr %collator, align 8
  %call = tail call i32 @ucol_getStrength_75(ptr noundef %0)
  %strength = getelementptr inbounds i8, ptr %strsrch, i64 3172
  %1 = load i32, ptr %strength, align 4
  %cmp = icmp slt i32 %1, 3
  %cmp1 = icmp sgt i32 %call, 2
  %or.cond = select i1 %cmp, i1 %cmp1, i1 false
  br i1 %or.cond, label %if.then6, label %lor.lhs.false

lor.lhs.false:                                    ; preds = %if.then
  %cmp3 = icmp sgt i32 %1, 2
  %cmp5 = icmp slt i32 %call, 3
  %or.cond1 = select i1 %cmp3, i1 %cmp5, i1 false
  br i1 %or.cond1, label %if.then6, label %if.end

if.then6:                                         ; preds = %lor.lhs.false, %if.then
  br label %if.end

if.end:                                           ; preds = %if.then6, %lor.lhs.false
  %sameCollAttribute.0 = phi i8 [ 0, %if.then6 ], [ 1, %lor.lhs.false ]
  %2 = load ptr, ptr %collator, align 8
  %call8 = tail call i32 @ucol_getStrength_75(ptr noundef %2)
  store i32 %call8, ptr %strength, align 4
  %switch.selectcmp.i = icmp eq i32 %call8, 1
  %switch.select.i = select i1 %switch.selectcmp.i, i32 -256, i32 -1
  %switch.selectcmp1.i = icmp eq i32 %call8, 0
  %switch.select2.i = select i1 %switch.selectcmp1.i, i32 -65536, i32 %switch.select.i
  %ceMask12 = getelementptr inbounds i8, ptr %strsrch, i64 3176
  %3 = load i32, ptr %ceMask12, align 8
  %cmp13.not = icmp eq i32 %3, %switch.select2.i
  br i1 %cmp13.not, label %if.end16, label %if.then14

if.then14:                                        ; preds = %if.end
  store i32 %switch.select2.i, ptr %ceMask12, align 8
  br label %if.end16

if.end16:                                         ; preds = %if.then14, %if.end
  %sameCollAttribute.1 = phi i8 [ 0, %if.then14 ], [ %sameCollAttribute.0, %if.end ]
  %4 = load ptr, ptr %collator, align 8
  %call18 = call i32 @ucol_getAttribute_75(ptr noundef %4, i32 noundef 1, ptr noundef nonnull %status)
  %cmp19 = icmp eq i32 %call18, 20
  %toShift = getelementptr inbounds i8, ptr %strsrch, i64 3184
  %5 = load i8, ptr %toShift, align 8
  %conv20 = sext i8 %5 to i32
  %conv21 = zext i1 %cmp19 to i32
  %cmp22.not = icmp eq i32 %conv20, %conv21
  br i1 %cmp22.not, label %if.end25, label %if.then23

if.then23:                                        ; preds = %if.end16
  %conv = zext i1 %cmp19 to i8
  store i8 %conv, ptr %toShift, align 8
  br label %if.end25

if.end25:                                         ; preds = %if.then23, %if.end16
  %sameCollAttribute.2 = phi i8 [ 0, %if.then23 ], [ %sameCollAttribute.1, %if.end16 ]
  %6 = load ptr, ptr %collator, align 8
  %call27 = call i32 @ucol_getVariableTop_75(ptr noundef %6, ptr noundef nonnull %status)
  %variableTop = getelementptr inbounds i8, ptr %strsrch, i64 3180
  %7 = load i32, ptr %variableTop, align 4
  %cmp28.not = icmp eq i32 %7, %call27
  br i1 %cmp28.not, label %if.end31, label %if.end31.thread

if.end31.thread:                                  ; preds = %if.end25
  store i32 %call27, ptr %variableTop, align 4
  br label %if.then33

if.end31:                                         ; preds = %if.end25
  %tobool32.not = icmp eq i8 %sameCollAttribute.2, 0
  br i1 %tobool32.not, label %if.then33, label %if.end34

if.then33:                                        ; preds = %if.end31.thread, %if.end31
  call fastcc void @_ZL10initializeP13UStringSearchP10UErrorCode(ptr noundef nonnull %strsrch, ptr noundef nonnull %status)
  br label %if.end34

if.end34:                                         ; preds = %if.then33, %if.end31
  %textIter = getelementptr inbounds i8, ptr %strsrch, i64 3144
  %8 = load ptr, ptr %textIter, align 8
  %9 = load ptr, ptr %strsrch, align 8
  %10 = load ptr, ptr %9, align 8
  %textLength = getelementptr inbounds i8, ptr %9, i64 8
  %11 = load i32, ptr %textLength, align 8
  call void @ucol_setText_75(ptr noundef %8, ptr noundef %10, i32 noundef %11, ptr noundef nonnull %status)
  %12 = load ptr, ptr %strsrch, align 8
  %matchedLength = getelementptr inbounds i8, ptr %12, i64 36
  store i32 0, ptr %matchedLength, align 4
  %13 = load ptr, ptr %strsrch, align 8
  %matchedIndex = getelementptr inbounds i8, ptr %13, i64 32
  store i32 -1, ptr %matchedIndex, align 8
  %14 = load ptr, ptr %strsrch, align 8
  %isOverlap = getelementptr inbounds i8, ptr %14, i64 12
  store i8 0, ptr %isOverlap, align 4
  %15 = load ptr, ptr %strsrch, align 8
  %isCanonicalMatch = getelementptr inbounds i8, ptr %15, i64 13
  store i8 0, ptr %isCanonicalMatch, align 1
  %16 = load ptr, ptr %strsrch, align 8
  %elementComparisonType = getelementptr inbounds i8, ptr %16, i64 14
  store i16 0, ptr %elementComparisonType, align 2
  %17 = load ptr, ptr %strsrch, align 8
  %isForwardSearching = getelementptr inbounds i8, ptr %17, i64 40
  store i8 1, ptr %isForwardSearching, align 8
  %18 = load ptr, ptr %strsrch, align 8
  %reset = getelementptr inbounds i8, ptr %18, i64 41
  store i8 1, ptr %reset, align 1
  br label %if.end43

if.end43:                                         ; preds = %if.end34, %entry
  ret void
}